target datalayout = "e-m:e-p270:32:32-p271:32:32-p272:64:64-i64:64-i128:128-f80:128-n8:16:32:64-S128"
target triple = "x86_64-pc-linux-gnu"

; Function Attrs: nounwind uwtable
define i32 @Cba_ReadHexDigit(i8 noundef signext %0) #0 {
  %2 = alloca i32, align 4
  %3 = alloca i8, align 1
  store i8 %0, ptr %3, align 1
  %4 = load i8, ptr %3, align 1
  %5 = sext i8 %4 to i32
  %6 = icmp sge i32 %5, 48
  br i1 %6, label %7, label %15

7:                                                ; preds = %1
  %8 = load i8, ptr %3, align 1
  %9 = sext i8 %8 to i32
  %10 = icmp sle i32 %9, 57
  br i1 %10, label %11, label %15

11:                                               ; preds = %7
  %12 = load i8, ptr %3, align 1
  %13 = sext i8 %12 to i32
  %14 = sub nsw i32 %13, 48
  store i32 %14, ptr %2, align 4
  br label %42

15:                                               ; preds = %7, %1
  %16 = load i8, ptr %3, align 1
  %17 = sext i8 %16 to i32
  %18 = icmp sge i32 %17, 65
  br i1 %18, label %19, label %28

19:                                               ; preds = %15
  %20 = load i8, ptr %3, align 1
  %21 = sext i8 %20 to i32
  %22 = icmp sle i32 %21, 70
  br i1 %22, label %23, label %28

23:                                               ; preds = %19
  %24 = load i8, ptr %3, align 1
  %25 = sext i8 %24 to i32
  %26 = sub nsw i32 %25, 65
  %27 = add nsw i32 %26, 10
  store i32 %27, ptr %2, align 4
  br label %42

28:                                               ; preds = %19, %15
  %29 = load i8, ptr %3, align 1
  %30 = sext i8 %29 to i32
  %31 = icmp sge i32 %30, 97
  br i1 %31, label %32, label %41

32:                                               ; preds = %28
  %33 = load i8, ptr %3, align 1
  %34 = sext i8 %33 to i32
  %35 = icmp sle i32 %34, 102
  br i1 %35, label %36, label %41

36:                                               ; preds = %32
  %37 = load i8, ptr %3, align 1
  %38 = sext i8 %37 to i32
  %39 = sub nsw i32 %38, 97
  %40 = add nsw i32 %39, 10
  store i32 %40, ptr %2, align 4
  br label %42

41:                                               ; preds = %32, %28
  store i32 -1, ptr %2, align 4
  br label %42

42:                                               ; preds = %41, %36, %23, %11
  %43 = load i32, ptr %2, align 4
  ret i32 %43
}