; Function Attrs: mustprogress nofree norecurse nosync nounwind willreturn memory(none) uwtable
define range(i32 -1, 16) i32 @Cba_ReadHexDigit(i8 noundef signext %0) local_unnamed_addr #2 {
  %2 = sext i8 %0 to i32
  %3 = add i8 %0, -48
  %or.cond = icmp ult i8 %3, 10
  br i1 %or.cond, label %4, label %6

4:                                                ; preds = %1
  %5 = add nsw i32 %2, -48
  br label %13

6:                                                ; preds = %1
  %7 = add i8 %0, -65
  %or.cond5 = icmp ult i8 %7, 6
  br i1 %or.cond5, label %8, label %10

8:                                                ; preds = %6
  %9 = add nsw i32 %2, -55
  br label %13

10:                                               ; preds = %6
  %11 = add i8 %0, -97
  %or.cond8 = icmp ult i8 %11, 6
  %12 = add nsw i32 %2, -87
  %spec.select = select i1 %or.cond8, i32 %12, i32 -1
  br label %13

13:                                               ; preds = %10, %8, %4
  %.0 = phi i32 [ %5, %4 ], [ %9, %8 ], [ %spec.select, %10 ]
  ret i32 %.0
}